target datalayout = "e-m:e-p270:32:32-p271:32:32-p272:64:64-i64:64-i128:128-f80:128-n8:16:32:64-S128"
target triple = "x86_64-pc-linux-gnu"

@.str = private unnamed_addr constant [7 x i8] c"natoms\00", align 1
@.str.1 = private unnamed_addr constant [122 x i8] c"generated/home/dtcxzyw/WorkSpace/Projects/compilers/llvm-opt-benchmark/bench/gromacs/gromacs/src/gromacs/fileio/xtcio.cpp\00", align 1
@.str.2 = private unnamed_addr constant [5 x i8] c"step\00", align 1
@.str.3 = private unnamed_addr constant [5 x i8] c"time\00", align 1
@debug = external global ptr, align 8
@.str.4 = private unnamed_addr constant [62 x i8] c"\0AXTC error: read/write of %s failed, source file %s, line %d\0A\00", align 1

; Function Attrs: mustprogress uwtable
define internal noundef i32 @_ZL7xdr_r2fP3XDRPfb(ptr noundef %0, ptr noundef %1, i1 noundef zeroext %2) #0 {
  %4 = alloca ptr, align 8
  %5 = alloca ptr, align 8
  %6 = alloca i8, align 1
  store ptr %0, ptr %4, align 8
  store ptr %1, ptr %5, align 8
  %7 = zext i1 %2 to i8
  store i8 %7, ptr %6, align 1
  %8 = load ptr, ptr %4, align 8
  %9 = load ptr, ptr %5, align 8
  %10 = call noundef i32 @_Z9xdr_floatP3XDRPf(ptr noundef %8, ptr noundef %9)
  ret i32 %10
}

; Function Attrs: mustprogress nounwind uwtable
define internal noundef i32 @_ZL9xtc_checkPKcbS0_i(ptr noundef %0, i1 noundef zeroext %1, ptr noundef %2, i32 noundef %3) #2 {
  %5 = alloca i32, align 4
  %6 = alloca ptr, align 8
  %7 = alloca i8, align 1
  %8 = alloca ptr, align 8
  %9 = alloca i32, align 4
  store ptr %0, ptr %6, align 8
  %10 = zext i1 %1 to i8
  store i8 %10, ptr %7, align 1
  store ptr %2, ptr %8, align 8
  store i32 %3, ptr %9, align 4
  %11 = load i8, ptr %7, align 1
  %12 = trunc i8 %11 to i1
  br i1 %12, label %23, label %13

13:                                               ; preds = %4
  %14 = load ptr, ptr @debug, align 8
  %15 = icmp ne ptr %14, null
  br i1 %15, label %16, label %22

16:                                               ; preds = %13
  %17 = load ptr, ptr @debug, align 8
  %18 = load ptr, ptr %6, align 8
  %19 = load ptr, ptr %8, align 8
  %20 = load i32, ptr %9, align 4
  %21 = call i32 (ptr, ptr, ...) @fprintf(ptr noundef %17, ptr noundef @.str.4, ptr noundef %18, ptr noundef %19, i32 noundef %20) #7
  br label %22

22:                                               ; preds = %16, %13
  store i32 0, ptr %5, align 4
  br label %24

23:                                               ; preds = %4
  store i32 1, ptr %5, align 4
  br label %24

24:                                               ; preds = %23, %22
  %25 = load i32, ptr %5, align 4
  ret i32 %25
}

; Function Attrs: mustprogress uwtable
define internal noundef i32 @_ZL10xtc_headerP3XDRPiS1_PlPfbPb(ptr noundef %0, ptr noundef %1, ptr noundef %2, ptr noundef %3, ptr noundef %4, i1 noundef zeroext %5, ptr noundef %6) #0 {
  %8 = alloca i32, align 4
  %9 = alloca ptr, align 8
  %10 = alloca ptr, align 8
  %11 = alloca ptr, align 8
  %12 = alloca ptr, align 8
  %13 = alloca ptr, align 8
  %14 = alloca i8, align 1
  %15 = alloca ptr, align 8
  %16 = alloca i32, align 4
  %17 = alloca i32, align 4
  store ptr %0, ptr %9, align 8
  store ptr %1, ptr %10, align 8
  store ptr %2, ptr %11, align 8
  store ptr %3, ptr %12, align 8
  store ptr %4, ptr %13, align 8
  %18 = zext i1 %5 to i8
  store i8 %18, ptr %14, align 1
  store ptr %6, ptr %15, align 8
  %19 = load ptr, ptr %9, align 8
  %20 = load ptr, ptr %10, align 8
  %21 = call noundef i32 @_Z7xdr_intP3XDRPi(ptr noundef %19, ptr noundef %20)
  %22 = icmp eq i32 %21, 0
  br i1 %22, label %23, label %24

23:                                               ; preds = %7
  store i32 0, ptr %8, align 4
  br label %60

24:                                               ; preds = %7
  %25 = load ptr, ptr %9, align 8
  %26 = load ptr, ptr %11, align 8
  %27 = call noundef i32 @_Z7xdr_intP3XDRPi(ptr noundef %25, ptr noundef %26)
  %28 = icmp ne i32 %27, 0
  %29 = call noundef i32 @_ZL9xtc_checkPKcbS0_i(ptr noundef @.str, i1 noundef zeroext %28, ptr noundef @.str.1, i32 noundef 117)
  store i32 %29, ptr %16, align 4
  %30 = load i32, ptr %16, align 4
  %31 = icmp ne i32 %30, 0
  br i1 %31, label %32, label %43

32:                                               ; preds = %24
  %33 = load ptr, ptr %12, align 8
  %34 = load i64, ptr %33, align 8
  %35 = trunc i64 %34 to i32
  store i32 %35, ptr %17, align 4
  %36 = load ptr, ptr %9, align 8
  %37 = call noundef i32 @_Z7xdr_intP3XDRPi(ptr noundef %36, ptr noundef %17)
  %38 = icmp ne i32 %37, 0
  %39 = call noundef i32 @_ZL9xtc_checkPKcbS0_i(ptr noundef @.str.2, i1 noundef zeroext %38, ptr noundef @.str.1, i32 noundef 124)
  store i32 %39, ptr %16, align 4
  %40 = load i32, ptr %17, align 4
  %41 = sext i32 %40 to i64
  %42 = load ptr, ptr %12, align 8
  store i64 %41, ptr %42, align 8
  br label %43

43:                                               ; preds = %32, %24
  %44 = load i32, ptr %16, align 4
  %45 = icmp ne i32 %44, 0
  br i1 %45, label %46, label %54

46:                                               ; preds = %43
  %47 = load ptr, ptr %9, align 8
  %48 = load ptr, ptr %13, align 8
  %49 = load i8, ptr %14, align 1
  %50 = trunc i8 %49 to i1
  %51 = call noundef i32 @_ZL7xdr_r2fP3XDRPfb(ptr noundef %47, ptr noundef %48, i1 noundef zeroext %50)
  %52 = icmp ne i32 %51, 0
  %53 = call noundef i32 @_ZL9xtc_checkPKcbS0_i(ptr noundef @.str.3, i1 noundef zeroext %52, ptr noundef @.str.1, i32 noundef 129)
  store i32 %53, ptr %16, align 4
  br label %54

54:                                               ; preds = %46, %43
  %55 = load i32, ptr %16, align 4
  %56 = icmp ne i32 %55, 0
  %57 = load ptr, ptr %15, align 8
  %58 = zext i1 %56 to i8
  store i8 %58, ptr %57, align 1
  %59 = load i32, ptr %16, align 4
  store i32 %59, ptr %8, align 4
  br label %60

60:                                               ; preds = %54, %23
  %61 = load i32, ptr %8, align 4
  ret i32 %61
}