; Function Attrs: mustprogress uwtable
define internal fastcc noundef i32 @_ZL10xtc_headerP3XDRPiS1_PlPfbPb(ptr noundef %0, ptr noundef %1, ptr noundef %2, ptr nocapture noundef %3, ptr noundef %4, ptr nocapture noundef writeonly %5) unnamed_addr #0 {
  %7 = alloca i32, align 4
  %8 = tail call noundef i32 @_Z7xdr_intP3XDRPi(ptr noundef %0, ptr noundef %1)
  %9 = icmp eq i32 %8, 0
  br i1 %9, label %34, label %10

10:                                               ; preds = %6
  %11 = tail call noundef i32 @_Z7xdr_intP3XDRPi(ptr noundef %0, ptr noundef %2)
  %.not = icmp eq i32 %11, 0
  br i1 %.not, label %12, label %_ZL9xtc_checkPKcbS0_i.exit

12:                                               ; preds = %10
  %13 = load ptr, ptr @debug, align 8
  %.not.i = icmp eq ptr %13, null
  br i1 %.not.i, label %.critedge, label %14

14:                                               ; preds = %12
  %15 = tail call i32 (ptr, ptr, ...) @fprintf(ptr noundef nonnull %13, ptr noundef nonnull @.str.4, ptr noundef nonnull @.str, ptr noundef nonnull @.str.1, i32 noundef 117) #8
  br label %.critedge

_ZL9xtc_checkPKcbS0_i.exit:                       ; preds = %10
  %16 = load i64, ptr %3, align 8
  %17 = trunc i64 %16 to i32
  store i32 %17, ptr %7, align 4
  %18 = call noundef i32 @_Z7xdr_intP3XDRPi(ptr noundef %0, ptr noundef nonnull %7)
  %.not27 = icmp eq i32 %18, 0
  br i1 %.not27, label %19, label %25

19:                                               ; preds = %_ZL9xtc_checkPKcbS0_i.exit
  %20 = load ptr, ptr @debug, align 8
  %.not.i18 = icmp eq ptr %20, null
  br i1 %.not.i18, label %_ZL9xtc_checkPKcbS0_i.exit20.thread, label %21

21:                                               ; preds = %19
  %22 = call i32 (ptr, ptr, ...) @fprintf(ptr noundef nonnull %20, ptr noundef nonnull @.str.4, ptr noundef nonnull @.str.2, ptr noundef nonnull @.str.1, i32 noundef 124) #8
  br label %_ZL9xtc_checkPKcbS0_i.exit20.thread

_ZL9xtc_checkPKcbS0_i.exit20.thread:              ; preds = %21, %19
  %23 = load i32, ptr %7, align 4
  %24 = sext i32 %23 to i64
  store i64 %24, ptr %3, align 8
  br label %.critedge

25:                                               ; preds = %_ZL9xtc_checkPKcbS0_i.exit
  %26 = load i32, ptr %7, align 4
  %27 = sext i32 %26 to i64
  store i64 %27, ptr %3, align 8
  %28 = call noundef i32 @_Z9xdr_floatP3XDRPf(ptr noundef %0, ptr noundef %4)
  %.not28 = icmp eq i32 %28, 0
  br i1 %.not28, label %29, label %.critedge

29:                                               ; preds = %25
  %30 = load ptr, ptr @debug, align 8
  %.not.i21 = icmp eq ptr %30, null
  br i1 %.not.i21, label %.critedge, label %31

31:                                               ; preds = %29
  %32 = call i32 (ptr, ptr, ...) @fprintf(ptr noundef nonnull %30, ptr noundef nonnull @.str.4, ptr noundef nonnull @.str.3, ptr noundef nonnull @.str.1, i32 noundef 129) #8
  br label %.critedge

.critedge:                                        ; preds = %12, %14, %31, %29, %25, %_ZL9xtc_checkPKcbS0_i.exit20.thread
  %.1 = phi i32 [ 0, %_ZL9xtc_checkPKcbS0_i.exit20.thread ], [ 0, %31 ], [ 0, %29 ], [ 1, %25 ], [ 0, %14 ], [ 0, %12 ]
  %33 = trunc nuw nsw i32 %.1 to i8
  store i8 %33, ptr %5, align 1
  br label %34

34:                                               ; preds = %6, %.critedge
  %.015 = phi i32 [ %.1, %.critedge ], [ 0, %6 ]
  ret i32 %.015
}